; Function Attrs: mustprogress nounwind uwtable
define range(i32 0, -65535) i32 @_ZNK8WasmEdge4Host4WASI5INode6fdTellERm(ptr noundef nonnull readonly align 8 captures(none) dereferenceable(200) %0, ptr noundef nonnull writeonly align 8 captures(none) dereferenceable(8) %1) local_unnamed_addr #0 align 2 personality ptr @__gxx_personality_v0 {
  %3 = load i32, ptr %0, align 8
  %4 = tail call i64 @lseek(i32 noundef %3, i64 noundef 0, i32 noundef 1) #24
  %5 = icmp slt i64 %4, 0
  br i1 %5, label %6, label %12

6:                                                ; preds = %2
  %7 = tail call ptr @__errno_location() #25
  %8 = load i32, ptr %7, align 4
  %9 = tail call noundef zeroext i16 @_ZN8WasmEdge4Host4WASI6detail9fromErrNoEi(i32 noundef %8) #24
  %10 = zext i16 %9 to i32
  %11 = shl nuw i32 %10, 16
  br label %13

12:                                               ; preds = %2
  store i64 %4, ptr %1, align 8
  br label %13

13:                                               ; preds = %12, %6
  %.sroa.03.0.insert.insert = phi i32 [ %11, %6 ], [ 1, %12 ]
  ret i32 %.sroa.03.0.insert.insert
}